target datalayout = "e-m:e-p270:32:32-p271:32:32-p272:64:64-i64:64-i128:128-f80:128-n8:16:32:64-S128"
target triple = "x86_64-pc-linux-gnu"

%struct.spa_type_info = type { i32, i32, ptr, ptr }

; Function Attrs: nounwind uwtable
define internal ptr @spa_debug_type_find(ptr noundef %0, i32 noundef %1) #0 {
  %3 = alloca ptr, align 8
  %4 = alloca ptr, align 8
  %5 = alloca i32, align 4
  %6 = alloca ptr, align 8
  store ptr %0, ptr %4, align 8
  store i32 %1, ptr %5, align 4
  %7 = load ptr, ptr %4, align 8
  %8 = icmp eq ptr %7, null
  br i1 %8, label %9, label %10

9:                                                ; preds = %2
  store ptr @spa_types, ptr %4, align 8
  br label %10

10:                                               ; preds = %9, %2
  br label %11

11:                                               ; preds = %50, %10
  %12 = load ptr, ptr %4, align 8
  %13 = icmp ne ptr %12, null
  br i1 %13, label %14, label %19

14:                                               ; preds = %11
  %15 = load ptr, ptr %4, align 8
  %16 = getelementptr inbounds %struct.spa_type_info, ptr %15, i32 0, i32 2
  %17 = load ptr, ptr %16, align 8
  %18 = icmp ne ptr %17, null
  br label %19

19:                                               ; preds = %14, %11
  %20 = phi i1 [ false, %11 ], [ %18, %14 ]
  br i1 %20, label %21, label %53

21:                                               ; preds = %19
  %22 = load ptr, ptr %4, align 8
  %23 = getelementptr inbounds %struct.spa_type_info, ptr %22, i32 0, i32 0
  %24 = load i32, ptr %23, align 8
  %25 = icmp eq i32 %24, -1
  br i1 %25, label %26, label %41

26:                                               ; preds = %21
  %27 = load ptr, ptr %4, align 8
  %28 = getelementptr inbounds %struct.spa_type_info, ptr %27, i32 0, i32 3
  %29 = load ptr, ptr %28, align 8
  %30 = icmp ne ptr %29, null
  br i1 %30, label %31, label %40

31:                                               ; preds = %26
  %32 = load ptr, ptr %4, align 8
  %33 = getelementptr inbounds %struct.spa_type_info, ptr %32, i32 0, i32 3
  %34 = load ptr, ptr %33, align 8
  %35 = load i32, ptr %5, align 4
  %36 = call ptr @spa_debug_type_find(ptr noundef %34, i32 noundef %35)
  store ptr %36, ptr %6, align 8
  %37 = icmp ne ptr %36, null
  br i1 %37, label %38, label %40

38:                                               ; preds = %31
  %39 = load ptr, ptr %6, align 8
  store ptr %39, ptr %3, align 8
  br label %54

40:                                               ; preds = %31, %26
  br label %50

41:                                               ; preds = %21
  %42 = load ptr, ptr %4, align 8
  %43 = getelementptr inbounds %struct.spa_type_info, ptr %42, i32 0, i32 0
  %44 = load i32, ptr %43, align 8
  %45 = load i32, ptr %5, align 4
  %46 = icmp eq i32 %44, %45
  br i1 %46, label %47, label %49

47:                                               ; preds = %41
  %48 = load ptr, ptr %4, align 8
  store ptr %48, ptr %3, align 8
  br label %54

49:                                               ; preds = %41
  br label %50

50:                                               ; preds = %49, %40
  %51 = load ptr, ptr %4, align 8
  %52 = getelementptr inbounds %struct.spa_type_info, ptr %51, i32 1
  store ptr %52, ptr %4, align 8
  br label %11, !llvm.loop !17

53:                                               ; preds = %19
  store ptr null, ptr %3, align 8
  br label %54

54:                                               ; preds = %53, %47, %38
  %55 = load ptr, ptr %3, align 8
  ret ptr %55
}