; Function Attrs: nofree nosync nounwind memory(read, inaccessiblemem: none) uwtable
define internal fastcc ptr @spa_debug_type_find(ptr noundef readonly %0, i32 noundef %1) unnamed_addr #12 {
  %3 = icmp eq ptr %0, null
  %spec.store.select = select i1 %3, ptr @spa_types, ptr %0
  %4 = getelementptr inbounds i8, ptr %spec.store.select, i64 8
  %5 = load ptr, ptr %4, align 8
  %.not18 = icmp eq ptr %5, null
  br i1 %.not18, label %.critedge, label %.lr.ph

.lr.ph:                                           ; preds = %2, %15
  %.01219 = phi ptr [ %16, %15 ], [ %spec.store.select, %2 ]
  %6 = load i32, ptr %.01219, align 8
  %7 = icmp eq i32 %6, -1
  br i1 %7, label %8, label %13

8:                                                ; preds = %.lr.ph
  %9 = getelementptr inbounds i8, ptr %.01219, i64 16
  %10 = load ptr, ptr %9, align 8
  %.not16 = icmp eq ptr %10, null
  br i1 %.not16, label %15, label %11

11:                                               ; preds = %8
  %12 = tail call fastcc ptr @spa_debug_type_find(ptr noundef nonnull %10, i32 noundef %1)
  %.not17 = icmp eq ptr %12, null
  br i1 %.not17, label %15, label %.critedge

13:                                               ; preds = %.lr.ph
  %14 = icmp eq i32 %6, %1
  br i1 %14, label %.critedge, label %15

15:                                               ; preds = %13, %8, %11
  %16 = getelementptr inbounds i8, ptr %.01219, i64 24
  %17 = getelementptr inbounds i8, ptr %.01219, i64 32
  %18 = load ptr, ptr %17, align 8
  %.not = icmp eq ptr %18, null
  br i1 %.not, label %.critedge, label %.lr.ph, !llvm.loop !18

.critedge:                                        ; preds = %11, %13, %15, %2
  %.0 = phi ptr [ null, %2 ], [ null, %15 ], [ %.01219, %13 ], [ %12, %11 ]
  ret ptr %.0
}